BL51 BANKED LINKER/LOCATER V6.22.2.0                                                    03/02/2023  12:26:04  PAGE 1


BL51 BANKED LINKER/LOCATER V6.22.2.0, INVOKED BY:
C:\KEIL_V5\C51\BIN\BL51.EXE .\Objects\STARTUP.obj, .\Objects\main.obj, .\Objects\delay.obj, .\Objects\Uart1.obj TO .\Obj
>> ects\esptest PRINT (.\Listings\esptest.m51) RAMSIZE (256)


MEMORY MODEL: LARGE


INPUT MODULES INCLUDED:
  .\Objects\STARTUP.obj (?C_STARTUP)
  .\Objects\main.obj (MAIN)
  .\Objects\delay.obj (DELAY)
  .\Objects\Uart1.obj (UART1)
  C:\KEIL_V5\C51\LIB\C51L.LIB (?C_INIT)
  C:\KEIL_V5\C51\LIB\C51L.LIB (?C?COPY)
  C:\KEIL_V5\C51\LIB\C51L.LIB (?C?CLDPTR)
  C:\KEIL_V5\C51\LIB\C51L.LIB (?C?ILDIX)
  C:\KEIL_V5\C51\LIB\C51L.LIB (PRINTF)
  C:\KEIL_V5\C51\LIB\C51L.LIB (STRLEN)
  C:\KEIL_V5\C51\LIB\C51L.LIB (?C?CLDOPTR)
  C:\KEIL_V5\C51\LIB\C51L.LIB (?C?CSTPTR)
  C:\KEIL_V5\C51\LIB\C51L.LIB (?C?PLDIXDATA)
  C:\KEIL_V5\C51\LIB\C51L.LIB (?C?PSTXDATA)
  C:\KEIL_V5\C51\LIB\C51L.LIB (?C?CCASE)


LINK MAP OF MODULE:  .\Objects\esptest (?C_STARTUP)


            TYPE    BASE      LENGTH    RELOCATION   SEGMENT NAME
            -----------------------------------------------------

            * * * * * * *   D A T A   M E M O R Y   * * * * * * *
            REG     0000H     0008H     ABSOLUTE     "REG BANK 0"
            REG     0008H     0008H     ABSOLUTE     "REG BANK 1"
            DATA    0010H     0005H     UNIT         _DATA_GROUP_
                    0015H     000BH                  *** GAP ***
            BIT     0020H.0   0001H.1   UNIT         _BIT_GROUP_
            BIT     0021H.1   0000H.1   UNIT         ?BI?UART1
                    0021H.2   0000H.6                *** GAP ***
            IDATA   0022H     0001H     UNIT         ?STACK

            * * * * * * *  X D A T A   M E M O R Y  * * * * * * *
            XDATA   0000H     0082H     UNIT         ?XD?UART1
            XDATA   0082H     0032H     UNIT         _XDATA_GROUP_

            * * * * * * *   C O D E   M E M O R Y   * * * * * * *
            CODE    0000H     0003H     ABSOLUTE     
            CODE    0003H     001FH     UNIT         ?PR?_UART1SENDDATA?UART1
                    0022H     0001H                  *** GAP ***
            CODE    0023H     0003H     ABSOLUTE     
            CODE    0026H     0365H     UNIT         ?PR?PRINTF?PRINTF
            CODE    038BH     01AAH     UNIT         ?C?LIB_CODE
            CODE    0535H     008DH     UNIT         ?C_INITSEG
            CODE    05C2H     008CH     UNIT         ?C_C51STARTUP
            CODE    064EH     0069H     UNIT         ?PR?MAIN?MAIN
            CODE    06B7H     004AH     UNIT         ?PR?UART1?UART1
            CODE    0701H     0025H     UNIT         ?CO?MAIN
BL51 BANKED LINKER/LOCATER V6.22.2.0                                                  03/02/2023  12:26:04  PAGE 2


            CODE    0726H     0024H     UNIT         ?PR?_SENDSTRING?UART1
            CODE    074AH     0023H     UNIT         ?PR?UART1_INIT?UART1
            CODE    076DH     0017H     UNIT         ?PR?_SENDDATA?UART1
            CODE    0784H     0015H     UNIT         ?PR?_STRLEN?STRLEN
            CODE    0799H     0010H     UNIT         ?PR?_DELAY_MS?DELAY
            CODE    07A9H     000CH     UNIT         ?PR?_PUTCHAR?UART1



OVERLAY MAP OF MODULE:   .\Objects\esptest (?C_STARTUP)


SEGMENT                             BIT_GROUP          DATA_GROUP          XDATA_GROUP
  +--> CALLED SEGMENT            START    LENGTH     START    LENGTH     START    LENGTH
----------------------------------------------------------------------------------------
?C_C51STARTUP                    -----    -----      -----    -----      -----    -----
  +--> ?PR?MAIN?MAIN
  +--> ?C_INITSEG

?PR?MAIN?MAIN                    -----    -----      -----    -----      0082H    000AH
  +--> ?CO?MAIN
  +--> ?PR?UART1_INIT?UART1
  +--> ?PR?_DELAY_MS?DELAY
  +--> ?PR?PRINTF?PRINTF
  +--> ?PR?_SENDSTRING?UART1
  +--> ?PR?_STRLEN?STRLEN
  +--> ?PR?_UART1SENDDATA?UART1

?PR?PRINTF?PRINTF                0020H.0  0001H.1    0010H    0005H      008CH    0028H
  +--> ?PR?_PUTCHAR?UART1

?PR?_SENDSTRING?UART1            -----    -----      -----    -----      008CH    0003H
  +--> ?PR?_SENDDATA?UART1

?PR?_UART1SENDDATA?UART1         -----    -----      -----    -----      008CH    0003H
  +--> ?PR?_SENDDATA?UART1



SYMBOL TABLE OF MODULE:  .\Objects\esptest (?C_STARTUP)

  VALUE           TYPE          NAME
  ----------------------------------

  -------         MODULE        ?C_STARTUP
  C:05C2H         SEGMENT       ?C_C51STARTUP
  I:0022H         SEGMENT       ?STACK
  C:0000H         PUBLIC        ?C_STARTUP
  D:00E0H         SYMBOL        ACC
  D:00F0H         SYMBOL        B
  D:0083H         SYMBOL        DPH
  D:0082H         SYMBOL        DPL
  N:0000H         SYMBOL        IBPSTACK
  N:0100H         SYMBOL        IBPSTACKTOP
  N:0080H         SYMBOL        IDATALEN
  C:05C5H         SYMBOL        IDATALOOP
  N:0000H         SYMBOL        PBPSTACK
BL51 BANKED LINKER/LOCATER V6.22.2.0                                                  03/02/2023  12:26:04  PAGE 3


  N:0100H         SYMBOL        PBPSTACKTOP
  N:0000H         SYMBOL        PDATALEN
  N:0000H         SYMBOL        PDATASTART
  N:0000H         SYMBOL        PPAGE
  N:0000H         SYMBOL        PPAGEENABLE
  D:00A0H         SYMBOL        PPAGE_SFR
  D:0081H         SYMBOL        SP
  C:05C2H         SYMBOL        STARTUP1
  N:0000H         SYMBOL        XBPSTACK
  N:0000H         SYMBOL        XBPSTACKTOP
  N:0000H         SYMBOL        XDATALEN
  N:0000H         SYMBOL        XDATASTART
  C:0000H         LINE#         126
  C:05C2H         LINE#         133
  C:05C4H         LINE#         134
  C:05C5H         LINE#         135
  C:05C6H         LINE#         136
  C:05C8H         LINE#         185
  C:05CBH         LINE#         196
  -------         ENDMOD        ?C_STARTUP

  -------         MODULE        MAIN
  C:0000H         SYMBOL        _ICE_DUMMY_
  D:0080H         PUBLIC        P0
  D:0090H         PUBLIC        P1
  D:00A0H         PUBLIC        P2
  D:00B0H         PUBLIC        P3
  D:00C0H         PUBLIC        P4
  D:00C8H         PUBLIC        P5
  D:00E8H         PUBLIC        P6
  D:00F8H         PUBLIC        P7
  D:00A8H         PUBLIC        IE
  D:00B8H         PUBLIC        IP
  D:00D8H         PUBLIC        CCON
  C:064EH         PUBLIC        main
  D:0098H         PUBLIC        SCON
  D:0088H         PUBLIC        TCON
  D:00F0H         PUBLIC        B
  C:071EH         SYMBOL        _?ix1000
  D:00E0H         PUBLIC        ACC
  D:00D0H         PUBLIC        PSW
  -------         PROC          MAIN
  -------         DO            
  X:0082H         SYMBOL        i
  X:0084H         SYMBOL        str
  -------         ENDDO         
  C:064EH         LINE#         9
  C:064EH         LINE#         10
  C:064EH         LINE#         12
  C:0661H         LINE#         13
  C:0668H         LINE#         14
  C:066BH         LINE#         15
  C:066BH         LINE#         16
  C:066BH         LINE#         17
  C:0670H         LINE#         18
  C:068CH         LINE#         20
  C:0691H         LINE#         21
BL51 BANKED LINKER/LOCATER V6.22.2.0                                                  03/02/2023  12:26:04  PAGE 4


  C:069AH         LINE#         23
  C:069FH         LINE#         24
  C:06B5H         LINE#         25
  -------         ENDPROC       MAIN
  -------         ENDMOD        MAIN

  -------         MODULE        DELAY
  C:0000H         SYMBOL        _ICE_DUMMY_
  D:0080H         PUBLIC        P0
  D:0090H         PUBLIC        P1
  D:00A0H         PUBLIC        P2
  D:00B0H         PUBLIC        P3
  D:00C0H         PUBLIC        P4
  D:00C8H         PUBLIC        P5
  D:00E8H         PUBLIC        P6
  D:00F8H         PUBLIC        P7
  D:00A8H         PUBLIC        IE
  D:00B8H         PUBLIC        IP
  D:00D8H         PUBLIC        CCON
  D:0098H         PUBLIC        SCON
  D:0088H         PUBLIC        TCON
  D:00F0H         PUBLIC        B
  D:00E0H         PUBLIC        ACC
  C:0799H         PUBLIC        _delay_ms
  D:00D0H         PUBLIC        PSW
  -------         PROC          _DELAY_MS
  D:0007H         SYMBOL        ms
  -------         DO            
  D:0004H         SYMBOL        i
  -------         ENDDO         
  C:0799H         LINE#         21
  C:0799H         LINE#         22
  C:0799H         LINE#         26
  C:0799H         LINE#         27
  C:079DH         LINE#         28
  C:07A6H         LINE#         29
  C:07A8H         LINE#         30
  -------         ENDPROC       _DELAY_MS
  -------         ENDMOD        DELAY

  -------         MODULE        UART1
  C:0000H         SYMBOL        _ICE_DUMMY_
  D:0080H         PUBLIC        P0
  D:0090H         PUBLIC        P1
  D:00A0H         PUBLIC        P2
  D:00B0H         PUBLIC        P3
  D:00C0H         PUBLIC        P4
  D:00C8H         PUBLIC        P5
  B:00A8H.7       PUBLIC        EA
  D:00E8H         PUBLIC        P6
  D:00F8H         PUBLIC        P7
  C:0726H         PUBLIC        _SendString
  C:077CH         PUBLIC        _SendData
  D:00A2H         PUBLIC        P_SW1
  D:00A8H         PUBLIC        IE
  X:0000H         PUBLIC        uart1_buf
  B:00A8H.4       PUBLIC        ES
BL51 BANKED LINKER/LOCATER V6.22.2.0                                                  03/02/2023  12:26:04  PAGE 5


  D:00B8H         PUBLIC        IP
  B:0098H.0       PUBLIC        RI
  B:0098H.1       PUBLIC        TI
  B:00B8H.4       PUBLIC        PS
  D:00D8H         PUBLIC        CCON
  X:0080H         PUBLIC        UART1_LEN
  D:0099H         PUBLIC        SBUF
  D:0098H         PUBLIC        SCON
  D:0088H         PUBLIC        TCON
  X:0081H         PUBLIC        UART1_STA
  D:00F0H         PUBLIC        B
  D:008EH         PUBLIC        AUXR
  B:0021H.1       PUBLIC        busy
  C:074AH         PUBLIC        Uart1_Init
  D:00E0H         PUBLIC        ACC
  D:00D6H         PUBLIC        T2H
  C:06B7H         PUBLIC        Uart1
  D:00D7H         PUBLIC        T2L
  C:0003H         PUBLIC        _Uart1SendData
  B:0098H.4       PUBLIC        REN
  D:00D0H         PUBLIC        PSW
  C:07A9H         PUBLIC        _putchar
  -------         PROC          UART1_INIT
  C:074AH         LINE#         18
  C:074AH         LINE#         19
  C:074AH         LINE#         20
  C:074CH         LINE#         21
  C:074EH         LINE#         22
  C:0750H         LINE#         23
  C:0758H         LINE#         25
  C:075BH         LINE#         26
  C:075EH         LINE#         28
  C:0761H         LINE#         29
  C:0764H         LINE#         30
  C:0766H         LINE#         32
  C:0768H         LINE#         34
  C:076AH         LINE#         35
  C:076CH         LINE#         36
  -------         ENDPROC       UART1_INIT
  -------         PROC          UART1
  -------         DO            
  D:000FH         SYMBOL        Res
  -------         ENDDO         
  C:06B7H         LINE#         38
  C:06C2H         LINE#         42
  C:06C5H         LINE#         43
  C:06C5H         LINE#         44
  C:06C7H         LINE#         46
  C:06C9H         LINE#         47
  C:06D2H         LINE#         48
  C:06D2H         LINE#         49
  C:06E2H         LINE#         50
  C:06E2H         LINE#         52
  C:06E6H         LINE#         53
  C:06E6H         LINE#         54
  C:06ECH         LINE#         55
  C:06F1H         LINE#         56
BL51 BANKED LINKER/LOCATER V6.22.2.0                                                  03/02/2023  12:26:04  PAGE 6


  C:06F1H         LINE#         57
  C:06F1H         LINE#         58
  C:06F4H         LINE#         59
  C:06F4H         LINE#         60
  C:06F6H         LINE#         61
  C:06F8H         LINE#         62
  C:06F8H         LINE#         63
  -------         ENDPROC       UART1
  -------         PROC          L?0020
  -------         ENDPROC       L?0020
  -------         PROC          _SENDDATA
  D:0007H         SYMBOL        dat
  C:077CH         LINE#         69
  C:077CH         LINE#         70
  C:077CH         LINE#         71
  C:077FH         LINE#         73
  C:0781H         LINE#         74
  C:0783H         LINE#         75
  -------         ENDPROC       _SENDDATA
  -------         PROC          _UART1SENDDATA
  X:008CH         SYMBOL        s
  D:0004H         SYMBOL        len
  C:0003H         LINE#         80
  C:000EH         LINE#         81
  C:000EH         LINE#         82
  C:0012H         LINE#         83
  C:0012H         LINE#         84
  C:001AH         LINE#         85
  C:001FH         LINE#         86
  C:0021H         LINE#         87
  -------         ENDPROC       _UART1SENDDATA
  -------         PROC          _PUTCHAR
  D:0007H         SYMBOL        c
  C:07A9H         LINE#         89
  C:07A9H         LINE#         90
  C:07A9H         LINE#         91
  C:07ABH         LINE#         93
  C:07ADH         LINE#         95
  C:07B0H         LINE#         97
  C:07B2H         LINE#         99
  C:07B4H         LINE#         101
  C:07B4H         LINE#         102
  -------         ENDPROC       _PUTCHAR
  -------         PROC          _SENDSTRING
  X:008CH         SYMBOL        s
  C:0726H         LINE#         107
  C:0731H         LINE#         108
  C:0731H         LINE#         109
  C:0741H         LINE#         110
  C:0741H         LINE#         111
  C:0747H         LINE#         112
  C:0749H         LINE#         113
  -------         ENDPROC       _SENDSTRING
  -------         ENDMOD        UART1

  -------         MODULE        ?C?COPY
  C:045BH         PUBLIC        ?C?COPY
BL51 BANKED LINKER/LOCATER V6.22.2.0                                                  03/02/2023  12:26:04  PAGE 7


  -------         ENDMOD        ?C?COPY

  -------         MODULE        ?C?CLDPTR
  C:0481H         PUBLIC        ?C?CLDPTR
  -------         ENDMOD        ?C?CLDPTR

  -------         MODULE        ?C?ILDIX
  C:049AH         PUBLIC        ?C?ILDIX
  -------         ENDMOD        ?C?ILDIX

  -------         MODULE        PRINTF
  X:008CH         PUBLIC        ?_PRINTF517?BYTE
  X:008CH         PUBLIC        ?_PRINTF?BYTE
  X:008CH         PUBLIC        ?_SPRINTF517?BYTE
  X:008CH         PUBLIC        ?_SPRINTF?BYTE
  C:0091H         PUBLIC        _PRINTF
  C:0091H         PUBLIC        _PRINTF517
  C:008BH         PUBLIC        _SPRINTF
  C:008BH         PUBLIC        _SPRINTF517
  -------         ENDMOD        PRINTF

  -------         MODULE        STRLEN
  C:0784H         PUBLIC        _STRLEN
  -------         ENDMOD        STRLEN

  -------         MODULE        ?C?CLDOPTR
  C:04B0H         PUBLIC        ?C?CLDOPTR
  -------         ENDMOD        ?C?CLDOPTR

  -------         MODULE        ?C?CSTPTR
  C:04DDH         PUBLIC        ?C?CSTPTR
  -------         ENDMOD        ?C?CSTPTR

  -------         MODULE        ?C?PLDIXDATA
  C:04EFH         PUBLIC        ?C?PLDIXDATA
  -------         ENDMOD        ?C?PLDIXDATA

  -------         MODULE        ?C?PSTXDATA
  C:0506H         PUBLIC        ?C?PSTXDATA
  -------         ENDMOD        ?C?PSTXDATA

  -------         MODULE        ?C?CCASE
  C:050FH         PUBLIC        ?C?CCASE
  -------         ENDMOD        ?C?CCASE

Program Size: data=23.2 xdata=180 code=1972
LINK/LOCATE RUN COMPLETE.  0 WARNING(S),  0 ERROR(S)
